target datalayout = "e-m:e-p270:32:32-p271:32:32-p272:64:64-i64:64-i128:128-f80:128-n8:16:32:64-S128"
target triple = "x86_64-pc-linux-gnu"

@.str = private unnamed_addr constant [26 x i8] c"../qemu/tcg/tcg-op-gvec.c\00", align 1
@__func__.tcg_gen_dup_i32 = private unnamed_addr constant [16 x i8] c"tcg_gen_dup_i32\00", align 1

; Function Attrs: nounwind sspstrong uwtable
define dso_local void @tcg_gen_dup_i32(i32 noundef %0, ptr noundef %1, ptr noundef %2) #0 {
  %4 = alloca i32, align 4
  %5 = alloca ptr, align 8
  %6 = alloca ptr, align 8
  store i32 %0, ptr %4, align 4
  store ptr %1, ptr %5, align 8
  store ptr %2, ptr %6, align 8
  %7 = load i32, ptr %4, align 4
  switch i32 %7, label %20 [
    i32 0, label %8
    i32 1, label %13
    i32 2, label %17
  ]

8:                                                ; preds = %3
  %9 = load ptr, ptr %5, align 8
  %10 = load ptr, ptr %6, align 8
  call void @tcg_gen_ext8u_i32(ptr noundef %9, ptr noundef %10)
  %11 = load ptr, ptr %5, align 8
  %12 = load ptr, ptr %5, align 8
  call void @tcg_gen_muli_i32(ptr noundef %11, ptr noundef %12, i32 noundef 16843009)
  br label %23

13:                                               ; preds = %3
  %14 = load ptr, ptr %5, align 8
  %15 = load ptr, ptr %6, align 8
  %16 = load ptr, ptr %6, align 8
  call void @tcg_gen_deposit_i32(ptr noundef %14, ptr noundef %15, ptr noundef %16, i32 noundef 16, i32 noundef 16)
  br label %23

17:                                               ; preds = %3
  %18 = load ptr, ptr %5, align 8
  %19 = load ptr, ptr %6, align 8
  call void @tcg_gen_mov_i32(ptr noundef %18, ptr noundef %19)
  br label %23

20:                                               ; preds = %3
  br label %21

21:                                               ; preds = %20
  call void @g_assertion_message_expr(ptr noundef null, ptr noundef @.str, i32 noundef 417, ptr noundef @__func__.tcg_gen_dup_i32, ptr noundef null) #12
  unreachable

22:                                               ; No predecessors!
  br label %23

23:                                               ; preds = %22, %17, %13, %8
  ret void
}