; Function Attrs: nounwind sspstrong uwtable
define dso_local void @tcg_gen_dup_i32(i32 noundef %0, ptr noundef %1, ptr noundef %2) local_unnamed_addr #2 {
  switch i32 %0, label %7 [
    i32 0, label %4
    i32 1, label %5
    i32 2, label %6
  ]

4:                                                ; preds = %3
  tail call void @tcg_gen_ext8u_i32(ptr noundef %1, ptr noundef %2) #10
  tail call void @tcg_gen_muli_i32(ptr noundef %1, ptr noundef %1, i32 noundef 16843009) #10
  br label %8

5:                                                ; preds = %3
  tail call void @tcg_gen_deposit_i32(ptr noundef %1, ptr noundef %2, ptr noundef %2, i32 noundef 16, i32 noundef 16) #10
  br label %8

6:                                                ; preds = %3
  tail call void @tcg_gen_mov_i32(ptr noundef %1, ptr noundef %2) #10
  br label %8

7:                                                ; preds = %3
  tail call void @g_assertion_message_expr(ptr noundef null, ptr noundef nonnull @.str, i32 noundef 417, ptr noundef nonnull @__func__.tcg_gen_dup_i32, ptr noundef null) #11
  unreachable

8:                                                ; preds = %6, %5, %4
  ret void
}